; Function Attrs: nounwind uwtable
define dso_local i32 @OpfamilynameGetOpfid(i32 noundef %0, ptr noundef %1) local_unnamed_addr #0 {
  tail call fastcc void @recomputeNamespacePath()
  %3 = load ptr, ptr @activeSearchPath, align 8
  %4 = getelementptr inbounds nuw i8, ptr %3, i64 4
  %5 = zext i32 %0 to i64
  %6 = ptrtoint ptr %1 to i64
  %.not = icmp eq ptr %3, null
  br i1 %.not, label %._crit_edge33, label %.lr.ph

.lr.ph:                                           ; preds = %2
  %7 = getelementptr inbounds nuw i8, ptr %3, i64 16
  %8 = load i32, ptr %4, align 4
  %9 = icmp sgt i32 %8, 0
  br i1 %9, label %.lr.ph40.preheader, label %._crit_edge33

.lr.ph40.preheader:                               ; preds = %.lr.ph
  %.pre42 = load i32, ptr @myTempNamespace, align 4
  br label %.lr.ph40

.lr.ph40:                                         ; preds = %.lr.ph40.preheader, %select.unfold
  %10 = phi i32 [ %8, %.lr.ph40.preheader ], [ %19, %select.unfold ]
  %11 = phi i32 [ %.pre42, %.lr.ph40.preheader ], [ %20, %select.unfold ]
  %indvars.iv = phi i64 [ 0, %.lr.ph40.preheader ], [ %indvars.iv.next, %select.unfold ]
  %12 = load ptr, ptr %7, align 8
  %13 = getelementptr inbounds nuw %union.ListCell, ptr %12, i64 %indvars.iv
  %14 = load i32, ptr %13, align 8
  %15 = icmp eq i32 %14, %11
  br i1 %15, label %select.unfold, label %16

16:                                               ; preds = %.lr.ph40
  %17 = zext i32 %14 to i64
  %18 = tail call i32 @GetSysCacheOid(i32 noundef 41, i16 noundef signext 1, i64 noundef %5, i64 noundef %6, i64 noundef %17, i64 noundef 0) #19
  %.not20 = icmp eq i32 %18, 0
  br i1 %.not20, label %.select.unfold_crit_edge, label %._crit_edge33

.select.unfold_crit_edge:                         ; preds = %16
  %.pre = load i32, ptr @myTempNamespace, align 4
  %.pre43 = load i32, ptr %4, align 4
  br label %select.unfold

select.unfold:                                    ; preds = %.select.unfold_crit_edge, %.lr.ph40
  %19 = phi i32 [ %.pre43, %.select.unfold_crit_edge ], [ %10, %.lr.ph40 ]
  %20 = phi i32 [ %.pre, %.select.unfold_crit_edge ], [ %11, %.lr.ph40 ]
  %indvars.iv.next = add nuw nsw i64 %indvars.iv, 1
  %21 = sext i32 %19 to i64
  %22 = icmp slt i64 %indvars.iv.next, %21
  br i1 %22, label %.lr.ph40, label %._crit_edge33

._crit_edge33:                                    ; preds = %16, %select.unfold, %.lr.ph, %2
  %23 = phi i32 [ 0, %2 ], [ 0, %.lr.ph ], [ 0, %select.unfold ], [ %18, %16 ]
  ret i32 %23
}